target datalayout = "e-m:e-p270:32:32-p271:32:32-p272:64:64-i64:64-i128:128-f80:128-n8:16:32:64-S128"
target triple = "x86_64-unknown-linux-gnu"

%"class.QuantLib::Date" = type { i64 }

; Function Attrs: inlinehint mustprogress uwtable
define linkonce_odr noundef i32 @_ZNK8QuantLib4Date9dayOfYearEv(ptr noundef nonnull align 8 dereferenceable(8) %this) #6 comdat align 2 {
entry:
  %this.addr = alloca ptr, align 8
  store ptr %this, ptr %this.addr, align 8, !tbaa !3
  %this1 = load ptr, ptr %this.addr, align 8
  %serialNumber_ = getelementptr inbounds nuw %"class.QuantLib::Date", ptr %this1, i32 0, i32 0
  %0 = load i64, ptr %serialNumber_, align 8, !tbaa !21
  %call = call noundef i32 @_ZNK8QuantLib4Date4yearEv(ptr noundef nonnull align 8 dereferenceable(8) %this1)
  %call2 = call noundef i64 @_ZN8QuantLib4Date10yearOffsetEi(i32 noundef %call)
  %sub = sub nsw i64 %0, %call2
  %conv = trunc i64 %sub to i32
  ret i32 %conv
}

; Function Attrs: inlinehint mustprogress uwtable
define linkonce_odr noundef i32 @_ZNK8QuantLib4Date10dayOfMonthEv(ptr noundef nonnull align 8 dereferenceable(8) %this) #6 comdat align 2 {
entry:
  %this.addr = alloca ptr, align 8
  store ptr %this, ptr %this.addr, align 8, !tbaa !3
  %this1 = load ptr, ptr %this.addr, align 8
  %call = call noundef i32 @_ZNK8QuantLib4Date9dayOfYearEv(ptr noundef nonnull align 8 dereferenceable(8) %this1)
  %call2 = call noundef i32 @_ZNK8QuantLib4Date5monthEv(ptr noundef nonnull align 8 dereferenceable(8) %this1)
  %call3 = call noundef i32 @_ZNK8QuantLib4Date4yearEv(ptr noundef nonnull align 8 dereferenceable(8) %this1)
  %call4 = call noundef zeroext i1 @_ZN8QuantLib4Date6isLeapEi(i32 noundef %call3)
  %call5 = call noundef i32 @_ZN8QuantLib4Date11monthOffsetENS_5MonthEb(i32 noundef %call2, i1 noundef zeroext %call4)
  %sub = sub nsw i32 %call, %call5
  ret i32 %sub
}

; Function Attrs: inlinehint mustprogress nounwind uwtable
define linkonce_odr noundef i32 @_ZNK8QuantLib4Date7weekdayEv(ptr noundef nonnull align 8 dereferenceable(8) %this) #4 comdat align 2 {
entry:
  %this.addr = alloca ptr, align 8
  %w = alloca i32, align 4
  store ptr %this, ptr %this.addr, align 8, !tbaa !3
  %this1 = load ptr, ptr %this.addr, align 8
  call void @llvm.lifetime.start.p0(i64 4, ptr %w) #2
  %serialNumber_ = getelementptr inbounds nuw %"class.QuantLib::Date", ptr %this1, i32 0, i32 0
  %0 = load i64, ptr %serialNumber_, align 8, !tbaa !21
  %rem = srem i64 %0, 7
  %conv = trunc i64 %rem to i32
  store i32 %conv, ptr %w, align 4, !tbaa !17
  %1 = load i32, ptr %w, align 4, !tbaa !17
  %cmp = icmp eq i32 %1, 0
  br i1 %cmp, label %cond.true, label %cond.false

cond.true:                                        ; preds = %entry
  br label %cond.end

cond.false:                                       ; preds = %entry
  %2 = load i32, ptr %w, align 4, !tbaa !17
  br label %cond.end

cond.end:                                         ; preds = %cond.false, %cond.true
  %cond = phi i32 [ 7, %cond.true ], [ %2, %cond.false ]
  call void @llvm.lifetime.end.p0(i64 4, ptr %w) #2
  ret i32 %cond
}

; Function Attrs: mustprogress uwtable
define noundef zeroext i1 @_ZNK8QuantLib8Slovakia8BsseImpl13isBusinessDayERKNS_4DateE(ptr noundef nonnull align 8 dereferenceable(104) %this, ptr noundef nonnull align 8 dereferenceable(8) %date) unnamed_addr #0 align 2 {
entry:
  %retval = alloca i1, align 1
  %this.addr = alloca ptr, align 8
  %date.addr = alloca ptr, align 8
  %w = alloca i32, align 4
  %d = alloca i32, align 4
  %dd = alloca i32, align 4
  %m = alloca i32, align 4
  %y = alloca i32, align 4
  %em = alloca i32, align 4
  %cleanup.dest.slot = alloca i32, align 4
  store ptr %this, ptr %this.addr, align 8, !tbaa !3
  store ptr %date, ptr %date.addr, align 8, !tbaa !3
  %this1 = load ptr, ptr %this.addr, align 8
  call void @llvm.lifetime.start.p0(i64 4, ptr %w) #2
  %0 = load ptr, ptr %date.addr, align 8, !tbaa !3
  %call = call noundef i32 @_ZNK8QuantLib4Date7weekdayEv(ptr noundef nonnull align 8 dereferenceable(8) %0)
  store i32 %call, ptr %w, align 4, !tbaa !15
  call void @llvm.lifetime.start.p0(i64 4, ptr %d) #2
  %1 = load ptr, ptr %date.addr, align 8, !tbaa !3
  %call2 = call noundef i32 @_ZNK8QuantLib4Date10dayOfMonthEv(ptr noundef nonnull align 8 dereferenceable(8) %1)
  store i32 %call2, ptr %d, align 4, !tbaa !17
  call void @llvm.lifetime.start.p0(i64 4, ptr %dd) #2
  %2 = load ptr, ptr %date.addr, align 8, !tbaa !3
  %call3 = call noundef i32 @_ZNK8QuantLib4Date9dayOfYearEv(ptr noundef nonnull align 8 dereferenceable(8) %2)
  store i32 %call3, ptr %dd, align 4, !tbaa !17
  call void @llvm.lifetime.start.p0(i64 4, ptr %m) #2
  %3 = load ptr, ptr %date.addr, align 8, !tbaa !3
  %call4 = call noundef i32 @_ZNK8QuantLib4Date5monthEv(ptr noundef nonnull align 8 dereferenceable(8) %3)
  store i32 %call4, ptr %m, align 4, !tbaa !19
  call void @llvm.lifetime.start.p0(i64 4, ptr %y) #2
  %4 = load ptr, ptr %date.addr, align 8, !tbaa !3
  %call5 = call noundef i32 @_ZNK8QuantLib4Date4yearEv(ptr noundef nonnull align 8 dereferenceable(8) %4)
  store i32 %call5, ptr %y, align 4, !tbaa !17
  call void @llvm.lifetime.start.p0(i64 4, ptr %em) #2
  %5 = load i32, ptr %y, align 4, !tbaa !17
  %call6 = call noundef i32 @_ZN8QuantLib8Calendar11WesternImpl12easterMondayEi(i32 noundef %5)
  store i32 %call6, ptr %em, align 4, !tbaa !17
  %6 = load i32, ptr %w, align 4, !tbaa !15
  %call7 = call noundef zeroext i1 @_ZNK8QuantLib8Calendar11WesternImpl9isWeekendENS_7WeekdayE(ptr noundef nonnull align 8 dereferenceable(104) %this1, i32 noundef %6)
  br i1 %call7, label %if.then, label %lor.lhs.false

lor.lhs.false:                                    ; preds = %entry
  %7 = load i32, ptr %d, align 4, !tbaa !17
  %cmp = icmp eq i32 %7, 1
  br i1 %cmp, label %land.lhs.true, label %lor.lhs.false9

land.lhs.true:                                    ; preds = %lor.lhs.false
  %8 = load i32, ptr %m, align 4, !tbaa !19
  %cmp8 = icmp eq i32 %8, 1
  br i1 %cmp8, label %if.then, label %lor.lhs.false9

lor.lhs.false9:                                   ; preds = %land.lhs.true, %lor.lhs.false
  %9 = load i32, ptr %d, align 4, !tbaa !17
  %cmp10 = icmp eq i32 %9, 6
  br i1 %cmp10, label %land.lhs.true11, label %lor.lhs.false13

land.lhs.true11:                                  ; preds = %lor.lhs.false9
  %10 = load i32, ptr %m, align 4, !tbaa !19
  %cmp12 = icmp eq i32 %10, 1
  br i1 %cmp12, label %if.then, label %lor.lhs.false13

lor.lhs.false13:                                  ; preds = %land.lhs.true11, %lor.lhs.false9
  %11 = load i32, ptr %dd, align 4, !tbaa !17
  %12 = load i32, ptr %em, align 4, !tbaa !17
  %sub = sub nsw i32 %12, 3
  %cmp14 = icmp eq i32 %11, %sub
  br i1 %cmp14, label %if.then, label %lor.lhs.false15

lor.lhs.false15:                                  ; preds = %lor.lhs.false13
  %13 = load i32, ptr %dd, align 4, !tbaa !17
  %14 = load i32, ptr %em, align 4, !tbaa !17
  %cmp16 = icmp eq i32 %13, %14
  br i1 %cmp16, label %if.then, label %lor.lhs.false17

lor.lhs.false17:                                  ; preds = %lor.lhs.false15
  %15 = load i32, ptr %d, align 4, !tbaa !17
  %cmp18 = icmp eq i32 %15, 1
  br i1 %cmp18, label %land.lhs.true19, label %lor.lhs.false21

land.lhs.true19:                                  ; preds = %lor.lhs.false17
  %16 = load i32, ptr %m, align 4, !tbaa !19
  %cmp20 = icmp eq i32 %16, 5
  br i1 %cmp20, label %if.then, label %lor.lhs.false21

lor.lhs.false21:                                  ; preds = %land.lhs.true19, %lor.lhs.false17
  %17 = load i32, ptr %d, align 4, !tbaa !17
  %cmp22 = icmp eq i32 %17, 8
  br i1 %cmp22, label %land.lhs.true23, label %lor.lhs.false25

land.lhs.true23:                                  ; preds = %lor.lhs.false21
  %18 = load i32, ptr %m, align 4, !tbaa !19
  %cmp24 = icmp eq i32 %18, 5
  br i1 %cmp24, label %if.then, label %lor.lhs.false25

lor.lhs.false25:                                  ; preds = %land.lhs.true23, %lor.lhs.false21
  %19 = load i32, ptr %d, align 4, !tbaa !17
  %cmp26 = icmp eq i32 %19, 5
  br i1 %cmp26, label %land.lhs.true27, label %lor.lhs.false29

land.lhs.true27:                                  ; preds = %lor.lhs.false25
  %20 = load i32, ptr %m, align 4, !tbaa !19
  %cmp28 = icmp eq i32 %20, 7
  br i1 %cmp28, label %if.then, label %lor.lhs.false29

lor.lhs.false29:                                  ; preds = %land.lhs.true27, %lor.lhs.false25
  %21 = load i32, ptr %d, align 4, !tbaa !17
  %cmp30 = icmp eq i32 %21, 29
  br i1 %cmp30, label %land.lhs.true31, label %lor.lhs.false33

land.lhs.true31:                                  ; preds = %lor.lhs.false29
  %22 = load i32, ptr %m, align 4, !tbaa !19
  %cmp32 = icmp eq i32 %22, 8
  br i1 %cmp32, label %if.then, label %lor.lhs.false33

lor.lhs.false33:                                  ; preds = %land.lhs.true31, %lor.lhs.false29
  %23 = load i32, ptr %d, align 4, !tbaa !17
  %cmp34 = icmp eq i32 %23, 1
  br i1 %cmp34, label %land.lhs.true35, label %lor.lhs.false37

land.lhs.true35:                                  ; preds = %lor.lhs.false33
  %24 = load i32, ptr %m, align 4, !tbaa !19
  %cmp36 = icmp eq i32 %24, 9
  br i1 %cmp36, label %if.then, label %lor.lhs.false37

lor.lhs.false37:                                  ; preds = %land.lhs.true35, %lor.lhs.false33
  %25 = load i32, ptr %d, align 4, !tbaa !17
  %cmp38 = icmp eq i32 %25, 15
  br i1 %cmp38, label %land.lhs.true39, label %lor.lhs.false41

land.lhs.true39:                                  ; preds = %lor.lhs.false37
  %26 = load i32, ptr %m, align 4, !tbaa !19
  %cmp40 = icmp eq i32 %26, 9
  br i1 %cmp40, label %if.then, label %lor.lhs.false41

lor.lhs.false41:                                  ; preds = %land.lhs.true39, %lor.lhs.false37
  %27 = load i32, ptr %d, align 4, !tbaa !17
  %cmp42 = icmp eq i32 %27, 1
  br i1 %cmp42, label %land.lhs.true43, label %lor.lhs.false45

land.lhs.true43:                                  ; preds = %lor.lhs.false41
  %28 = load i32, ptr %m, align 4, !tbaa !19
  %cmp44 = icmp eq i32 %28, 11
  br i1 %cmp44, label %if.then, label %lor.lhs.false45

lor.lhs.false45:                                  ; preds = %land.lhs.true43, %lor.lhs.false41
  %29 = load i32, ptr %d, align 4, !tbaa !17
  %cmp46 = icmp eq i32 %29, 17
  br i1 %cmp46, label %land.lhs.true47, label %lor.lhs.false49

land.lhs.true47:                                  ; preds = %lor.lhs.false45
  %30 = load i32, ptr %m, align 4, !tbaa !19
  %cmp48 = icmp eq i32 %30, 11
  br i1 %cmp48, label %if.then, label %lor.lhs.false49

lor.lhs.false49:                                  ; preds = %land.lhs.true47, %lor.lhs.false45
  %31 = load i32, ptr %d, align 4, !tbaa !17
  %cmp50 = icmp eq i32 %31, 24
  br i1 %cmp50, label %land.lhs.true51, label %lor.lhs.false53

land.lhs.true51:                                  ; preds = %lor.lhs.false49
  %32 = load i32, ptr %m, align 4, !tbaa !19
  %cmp52 = icmp eq i32 %32, 12
  br i1 %cmp52, label %if.then, label %lor.lhs.false53

lor.lhs.false53:                                  ; preds = %land.lhs.true51, %lor.lhs.false49
  %33 = load i32, ptr %d, align 4, !tbaa !17
  %cmp54 = icmp eq i32 %33, 25
  br i1 %cmp54, label %land.lhs.true55, label %lor.lhs.false57

land.lhs.true55:                                  ; preds = %lor.lhs.false53
  %34 = load i32, ptr %m, align 4, !tbaa !19
  %cmp56 = icmp eq i32 %34, 12
  br i1 %cmp56, label %if.then, label %lor.lhs.false57

lor.lhs.false57:                                  ; preds = %land.lhs.true55, %lor.lhs.false53
  %35 = load i32, ptr %d, align 4, !tbaa !17
  %cmp58 = icmp eq i32 %35, 26
  br i1 %cmp58, label %land.lhs.true59, label %lor.lhs.false61

land.lhs.true59:                                  ; preds = %lor.lhs.false57
  %36 = load i32, ptr %m, align 4, !tbaa !19
  %cmp60 = icmp eq i32 %36, 12
  br i1 %cmp60, label %if.then, label %lor.lhs.false61

lor.lhs.false61:                                  ; preds = %land.lhs.true59, %lor.lhs.false57
  %37 = load i32, ptr %d, align 4, !tbaa !17
  %cmp62 = icmp sge i32 %37, 24
  br i1 %cmp62, label %land.lhs.true63, label %lor.lhs.false69

land.lhs.true63:                                  ; preds = %lor.lhs.false61
  %38 = load i32, ptr %d, align 4, !tbaa !17
  %cmp64 = icmp sle i32 %38, 31
  br i1 %cmp64, label %land.lhs.true65, label %lor.lhs.false69

land.lhs.true65:                                  ; preds = %land.lhs.true63
  %39 = load i32, ptr %m, align 4, !tbaa !19
  %cmp66 = icmp eq i32 %39, 12
  br i1 %cmp66, label %land.lhs.true67, label %lor.lhs.false69

land.lhs.true67:                                  ; preds = %land.lhs.true65
  %40 = load i32, ptr %y, align 4, !tbaa !17
  %cmp68 = icmp eq i32 %40, 2004
  br i1 %cmp68, label %if.then, label %lor.lhs.false69

lor.lhs.false69:                                  ; preds = %land.lhs.true67, %land.lhs.true65, %land.lhs.true63, %lor.lhs.false61
  %41 = load i32, ptr %d, align 4, !tbaa !17
  %cmp70 = icmp sge i32 %41, 24
  br i1 %cmp70, label %land.lhs.true71, label %if.end

land.lhs.true71:                                  ; preds = %lor.lhs.false69
  %42 = load i32, ptr %d, align 4, !tbaa !17
  %cmp72 = icmp sle i32 %42, 31
  br i1 %cmp72, label %land.lhs.true73, label %if.end

land.lhs.true73:                                  ; preds = %land.lhs.true71
  %43 = load i32, ptr %m, align 4, !tbaa !19
  %cmp74 = icmp eq i32 %43, 12
  br i1 %cmp74, label %land.lhs.true75, label %if.end

land.lhs.true75:                                  ; preds = %land.lhs.true73
  %44 = load i32, ptr %y, align 4, !tbaa !17
  %cmp76 = icmp eq i32 %44, 2005
  br i1 %cmp76, label %if.then, label %if.end

if.then:                                          ; preds = %land.lhs.true75, %land.lhs.true67, %land.lhs.true59, %land.lhs.true55, %land.lhs.true51, %land.lhs.true47, %land.lhs.true43, %land.lhs.true39, %land.lhs.true35, %land.lhs.true31, %land.lhs.true27, %land.lhs.true23, %land.lhs.true19, %lor.lhs.false15, %lor.lhs.false13, %land.lhs.true11, %land.lhs.true, %entry
  store i1 false, ptr %retval, align 1
  store i32 1, ptr %cleanup.dest.slot, align 4
  br label %cleanup

if.end:                                           ; preds = %land.lhs.true75, %land.lhs.true73, %land.lhs.true71, %lor.lhs.false69
  store i1 true, ptr %retval, align 1
  store i32 1, ptr %cleanup.dest.slot, align 4
  br label %cleanup

cleanup:                                          ; preds = %if.end, %if.then
  call void @llvm.lifetime.end.p0(i64 4, ptr %em) #2
  call void @llvm.lifetime.end.p0(i64 4, ptr %y) #2
  call void @llvm.lifetime.end.p0(i64 4, ptr %m) #2
  call void @llvm.lifetime.end.p0(i64 4, ptr %dd) #2
  call void @llvm.lifetime.end.p0(i64 4, ptr %d) #2
  call void @llvm.lifetime.end.p0(i64 4, ptr %w) #2
  %45 = load i1, ptr %retval, align 1
  ret i1 %45
}