; Function Attrs: mustprogress uwtable
define noundef zeroext i1 @_ZNK8QuantLib8Slovakia8BsseImpl13isBusinessDayERKNS_4DateE(ptr noundef nonnull align 8 dereferenceable(104) %this, ptr noundef nonnull align 8 dereferenceable(8) %date) unnamed_addr #0 align 2 {
entry:
  %0 = load i64, ptr %date, align 8, !tbaa !23
  %rem.i = srem i64 %0, 7
  %conv.i = trunc nsw i64 %rem.i to i32
  %cmp.i = icmp eq i64 %rem.i, 0
  %cond.i = select i1 %cmp.i, i32 7, i32 %conv.i
  %call.i.i = tail call noundef i32 @_ZNK8QuantLib4Date4yearEv(ptr noundef nonnull align 8 dereferenceable(8) %date)
  %call2.i.i = tail call noundef i64 @_ZN8QuantLib4Date10yearOffsetEi(i32 noundef %call.i.i)
  %sub.i.i = sub nsw i64 %0, %call2.i.i
  %conv.i.i = trunc i64 %sub.i.i to i32
  %call2.i = tail call noundef i32 @_ZNK8QuantLib4Date5monthEv(ptr noundef nonnull align 8 dereferenceable(8) %date)
  %call3.i = tail call noundef i32 @_ZNK8QuantLib4Date4yearEv(ptr noundef nonnull align 8 dereferenceable(8) %date)
  %call4.i = tail call noundef zeroext i1 @_ZN8QuantLib4Date6isLeapEi(i32 noundef %call3.i)
  %call5.i = tail call noundef i32 @_ZN8QuantLib4Date11monthOffsetENS_5MonthEb(i32 noundef %call2.i, i1 noundef zeroext %call4.i)
  %sub.i = sub nsw i32 %conv.i.i, %call5.i
  %1 = load i64, ptr %date, align 8, !tbaa !23
  %call.i = tail call noundef i32 @_ZNK8QuantLib4Date4yearEv(ptr noundef nonnull align 8 dereferenceable(8) %date)
  %call2.i66 = tail call noundef i64 @_ZN8QuantLib4Date10yearOffsetEi(i32 noundef %call.i)
  %call4 = tail call noundef i32 @_ZNK8QuantLib4Date5monthEv(ptr noundef nonnull align 8 dereferenceable(8) %date)
  %call5 = tail call noundef i32 @_ZNK8QuantLib4Date4yearEv(ptr noundef nonnull align 8 dereferenceable(8) %date)
  %call6 = tail call noundef i32 @_ZN8QuantLib8Calendar11WesternImpl12easterMondayEi(i32 noundef %call5)
  %call7 = tail call noundef zeroext i1 @_ZNK8QuantLib8Calendar11WesternImpl9isWeekendENS_7WeekdayE(ptr noundef nonnull align 8 dereferenceable(104) %this, i32 noundef %cond.i)
  br i1 %call7, label %cleanup, label %lor.lhs.false

lor.lhs.false:                                    ; preds = %entry
  %sub.i67 = sub nsw i64 %1, %call2.i66
  %conv.i68 = trunc i64 %sub.i67 to i32
  %cmp = icmp eq i32 %sub.i, 1
  %cmp8 = icmp eq i32 %call4, 1
  %cmp10 = icmp eq i32 %sub.i, 6
  %or.cond69 = or i1 %cmp, %cmp10
  %or.cond57 = and i1 %or.cond69, %cmp8
  %sub = add nsw i32 %call6, -3
  %cmp14 = icmp eq i32 %sub, %conv.i68
  %or.cond58 = select i1 %or.cond57, i1 true, i1 %cmp14
  %cmp16 = icmp eq i32 %call6, %conv.i68
  %or.cond59 = or i1 %cmp16, %or.cond58
  br i1 %or.cond59, label %cleanup, label %lor.lhs.false17

lor.lhs.false17:                                  ; preds = %lor.lhs.false
  %cmp20 = icmp eq i32 %call4, 5
  %cmp22 = icmp eq i32 %sub.i, 8
  %or.cond270 = or i1 %cmp, %cmp22
  %or.cond60 = and i1 %or.cond270, %cmp20
  br i1 %or.cond60, label %cleanup, label %lor.lhs.false25

lor.lhs.false25:                                  ; preds = %lor.lhs.false17
  %cmp26 = icmp eq i32 %sub.i, 5
  %cmp28 = icmp eq i32 %call4, 7
  %or.cond4 = and i1 %cmp26, %cmp28
  br i1 %or.cond4, label %cleanup, label %lor.lhs.false29

lor.lhs.false29:                                  ; preds = %lor.lhs.false25
  %cmp30 = icmp eq i32 %sub.i, 29
  %cmp32 = icmp eq i32 %call4, 8
  %or.cond5 = and i1 %cmp30, %cmp32
  br i1 %or.cond5, label %cleanup, label %lor.lhs.false33

lor.lhs.false33:                                  ; preds = %lor.lhs.false29
  %cmp36 = icmp eq i32 %call4, 9
  %cmp38 = icmp eq i32 %sub.i, 15
  %or.cond671 = or i1 %cmp, %cmp38
  %or.cond61 = and i1 %or.cond671, %cmp36
  br i1 %or.cond61, label %cleanup, label %lor.lhs.false41

lor.lhs.false41:                                  ; preds = %lor.lhs.false33
  %cmp44 = icmp eq i32 %call4, 11
  %cmp46 = icmp eq i32 %sub.i, 17
  %or.cond872 = or i1 %cmp, %cmp46
  %or.cond62 = and i1 %or.cond872, %cmp44
  br i1 %or.cond62, label %cleanup, label %lor.lhs.false49

lor.lhs.false49:                                  ; preds = %lor.lhs.false41
  %cmp52 = icmp eq i32 %call4, 12
  %2 = and i32 %sub.i, -2
  %or.cond1073 = icmp eq i32 %2, 24
  %cmp58 = icmp eq i32 %sub.i, 26
  %or.cond6374 = or i1 %cmp58, %or.cond1073
  %or.cond64 = and i1 %or.cond6374, %cmp52
  br i1 %or.cond64, label %cleanup, label %lor.lhs.false61

lor.lhs.false61:                                  ; preds = %lor.lhs.false49
  %3 = and i32 %sub.i, -8
  %or.cond13 = icmp eq i32 %3, 24
  %4 = and i32 %call5, -2
  %or.cond1875 = icmp eq i32 %4, 2004
  %5 = and i1 %or.cond13, %or.cond1875
  %or.cond65 = and i1 %cmp52, %5
  %not.or.cond65 = xor i1 %or.cond65, true
  br label %cleanup

cleanup:                                          ; preds = %lor.lhs.false61, %entry, %lor.lhs.false, %lor.lhs.false17, %lor.lhs.false25, %lor.lhs.false29, %lor.lhs.false33, %lor.lhs.false41, %lor.lhs.false49
  %retval.0 = phi i1 [ false, %lor.lhs.false49 ], [ false, %lor.lhs.false41 ], [ false, %lor.lhs.false33 ], [ false, %lor.lhs.false29 ], [ false, %lor.lhs.false25 ], [ false, %lor.lhs.false17 ], [ false, %lor.lhs.false ], [ false, %entry ], [ %not.or.cond65, %lor.lhs.false61 ]
  ret i1 %retval.0
}